target datalayout = "e-m:e-p270:32:32-p271:32:32-p272:64:64-i64:64-i128:128-f80:128-n8:16:32:64-S128"
target triple = "x86_64-pc-linux-gnu"

%struct._cwd_state = type { ptr, i64 }
%struct._virtual_cwd_globals = type { %struct._cwd_state, i64, i64, i64, [1024 x ptr] }

@cwd_globals = hidden global %struct._virtual_cwd_globals zeroinitializer, align 8

; Function Attrs: nounwind uwtable
define dso_local ptr @virtual_fopen(ptr noundef %0, ptr noundef %1) #0 {
  %3 = alloca ptr, align 8
  %4 = alloca ptr, align 8
  %5 = alloca ptr, align 8
  %6 = alloca %struct._cwd_state, align 8
  %7 = alloca ptr, align 8
  %8 = alloca i32, align 4
  store ptr %0, ptr %4, align 8, !tbaa !12
  store ptr %1, ptr %5, align 8, !tbaa !12
  call void @llvm.lifetime.start.p0(i64 16, ptr %6) #16
  call void @llvm.lifetime.start.p0(i64 8, ptr %7) #16
  %9 = load ptr, ptr %4, align 8, !tbaa !12
  %10 = getelementptr inbounds i8, ptr %9, i64 0
  %11 = load i8, ptr %10, align 1, !tbaa !4
  %12 = sext i8 %11 to i32
  %13 = icmp eq i32 %12, 0
  br i1 %13, label %14, label %15

14:                                               ; preds = %2
  store ptr null, ptr %3, align 8
  store i32 1, ptr %8, align 4
  br label %303

15:                                               ; preds = %2
  %16 = load i64, ptr getelementptr inbounds nuw (%struct._cwd_state, ptr @cwd_globals, i32 0, i32 1), align 8, !tbaa !16
  %17 = getelementptr inbounds nuw %struct._cwd_state, ptr %6, i32 0, i32 1
  store i64 %16, ptr %17, align 8, !tbaa !13
  %18 = load i64, ptr getelementptr inbounds nuw (%struct._cwd_state, ptr @cwd_globals, i32 0, i32 1), align 8, !tbaa !16
  %19 = add i64 %18, 1
  %20 = call i1 @llvm.is.constant.i64(i64 %19)
  br i1 %20, label %21, label %275

21:                                               ; preds = %15
  %22 = load i64, ptr getelementptr inbounds nuw (%struct._cwd_state, ptr @cwd_globals, i32 0, i32 1), align 8, !tbaa !16
  %23 = add i64 %22, 1
  %24 = icmp ule i64 %23, 8
  br i1 %24, label %25, label %27

25:                                               ; preds = %21
  %26 = call noalias ptr @_emalloc_8()
  br label %273

27:                                               ; preds = %21
  %28 = load i64, ptr getelementptr inbounds nuw (%struct._cwd_state, ptr @cwd_globals, i32 0, i32 1), align 8, !tbaa !16
  %29 = add i64 %28, 1
  %30 = icmp ule i64 %29, 16
  br i1 %30, label %31, label %33

31:                                               ; preds = %27
  %32 = call noalias ptr @_emalloc_16()
  br label %271

33:                                               ; preds = %27
  %34 = load i64, ptr getelementptr inbounds nuw (%struct._cwd_state, ptr @cwd_globals, i32 0, i32 1), align 8, !tbaa !16
  %35 = add i64 %34, 1
  %36 = icmp ule i64 %35, 24
  br i1 %36, label %37, label %39

37:                                               ; preds = %33
  %38 = call noalias ptr @_emalloc_24()
  br label %269

39:                                               ; preds = %33
  %40 = load i64, ptr getelementptr inbounds nuw (%struct._cwd_state, ptr @cwd_globals, i32 0, i32 1), align 8, !tbaa !16
  %41 = add i64 %40, 1
  %42 = icmp ule i64 %41, 32
  br i1 %42, label %43, label %45

43:                                               ; preds = %39
  %44 = call noalias ptr @_emalloc_32()
  br label %267

45:                                               ; preds = %39
  %46 = load i64, ptr getelementptr inbounds nuw (%struct._cwd_state, ptr @cwd_globals, i32 0, i32 1), align 8, !tbaa !16
  %47 = add i64 %46, 1
  %48 = icmp ule i64 %47, 40
  br i1 %48, label %49, label %51

49:                                               ; preds = %45
  %50 = call noalias ptr @_emalloc_40()
  br label %265

51:                                               ; preds = %45
  %52 = load i64, ptr getelementptr inbounds nuw (%struct._cwd_state, ptr @cwd_globals, i32 0, i32 1), align 8, !tbaa !16
  %53 = add i64 %52, 1
  %54 = icmp ule i64 %53, 48
  br i1 %54, label %55, label %57

55:                                               ; preds = %51
  %56 = call noalias ptr @_emalloc_48()
  br label %263

57:                                               ; preds = %51
  %58 = load i64, ptr getelementptr inbounds nuw (%struct._cwd_state, ptr @cwd_globals, i32 0, i32 1), align 8, !tbaa !16
  %59 = add i64 %58, 1
  %60 = icmp ule i64 %59, 56
  br i1 %60, label %61, label %63

61:                                               ; preds = %57
  %62 = call noalias ptr @_emalloc_56()
  br label %261

63:                                               ; preds = %57
  %64 = load i64, ptr getelementptr inbounds nuw (%struct._cwd_state, ptr @cwd_globals, i32 0, i32 1), align 8, !tbaa !16
  %65 = add i64 %64, 1
  %66 = icmp ule i64 %65, 64
  br i1 %66, label %67, label %69

67:                                               ; preds = %63
  %68 = call noalias ptr @_emalloc_64()
  br label %259

69:                                               ; preds = %63
  %70 = load i64, ptr getelementptr inbounds nuw (%struct._cwd_state, ptr @cwd_globals, i32 0, i32 1), align 8, !tbaa !16
  %71 = add i64 %70, 1
  %72 = icmp ule i64 %71, 80
  br i1 %72, label %73, label %75

73:                                               ; preds = %69
  %74 = call noalias ptr @_emalloc_80()
  br label %257

75:                                               ; preds = %69
  %76 = load i64, ptr getelementptr inbounds nuw (%struct._cwd_state, ptr @cwd_globals, i32 0, i32 1), align 8, !tbaa !16
  %77 = add i64 %76, 1
  %78 = icmp ule i64 %77, 96
  br i1 %78, label %79, label %81

79:                                               ; preds = %75
  %80 = call noalias ptr @_emalloc_96()
  br label %255

81:                                               ; preds = %75
  %82 = load i64, ptr getelementptr inbounds nuw (%struct._cwd_state, ptr @cwd_globals, i32 0, i32 1), align 8, !tbaa !16
  %83 = add i64 %82, 1
  %84 = icmp ule i64 %83, 112
  br i1 %84, label %85, label %87

85:                                               ; preds = %81
  %86 = call noalias ptr @_emalloc_112()
  br label %253

87:                                               ; preds = %81
  %88 = load i64, ptr getelementptr inbounds nuw (%struct._cwd_state, ptr @cwd_globals, i32 0, i32 1), align 8, !tbaa !16
  %89 = add i64 %88, 1
  %90 = icmp ule i64 %89, 128
  br i1 %90, label %91, label %93

91:                                               ; preds = %87
  %92 = call noalias ptr @_emalloc_128()
  br label %251

93:                                               ; preds = %87
  %94 = load i64, ptr getelementptr inbounds nuw (%struct._cwd_state, ptr @cwd_globals, i32 0, i32 1), align 8, !tbaa !16
  %95 = add i64 %94, 1
  %96 = icmp ule i64 %95, 160
  br i1 %96, label %97, label %99

97:                                               ; preds = %93
  %98 = call noalias ptr @_emalloc_160()
  br label %249

99:                                               ; preds = %93
  %100 = load i64, ptr getelementptr inbounds nuw (%struct._cwd_state, ptr @cwd_globals, i32 0, i32 1), align 8, !tbaa !16
  %101 = add i64 %100, 1
  %102 = icmp ule i64 %101, 192
  br i1 %102, label %103, label %105

103:                                              ; preds = %99
  %104 = call noalias ptr @_emalloc_192()
  br label %247

105:                                              ; preds = %99
  %106 = load i64, ptr getelementptr inbounds nuw (%struct._cwd_state, ptr @cwd_globals, i32 0, i32 1), align 8, !tbaa !16
  %107 = add i64 %106, 1
  %108 = icmp ule i64 %107, 224
  br i1 %108, label %109, label %111

109:                                              ; preds = %105
  %110 = call noalias ptr @_emalloc_224()
  br label %245

111:                                              ; preds = %105
  %112 = load i64, ptr getelementptr inbounds nuw (%struct._cwd_state, ptr @cwd_globals, i32 0, i32 1), align 8, !tbaa !16
  %113 = add i64 %112, 1
  %114 = icmp ule i64 %113, 256
  br i1 %114, label %115, label %117

115:                                              ; preds = %111
  %116 = call noalias ptr @_emalloc_256()
  br label %243

117:                                              ; preds = %111
  %118 = load i64, ptr getelementptr inbounds nuw (%struct._cwd_state, ptr @cwd_globals, i32 0, i32 1), align 8, !tbaa !16
  %119 = add i64 %118, 1
  %120 = icmp ule i64 %119, 320
  br i1 %120, label %121, label %123

121:                                              ; preds = %117
  %122 = call noalias ptr @_emalloc_320()
  br label %241

123:                                              ; preds = %117
  %124 = load i64, ptr getelementptr inbounds nuw (%struct._cwd_state, ptr @cwd_globals, i32 0, i32 1), align 8, !tbaa !16
  %125 = add i64 %124, 1
  %126 = icmp ule i64 %125, 384
  br i1 %126, label %127, label %129

127:                                              ; preds = %123
  %128 = call noalias ptr @_emalloc_384()
  br label %239

129:                                              ; preds = %123
  %130 = load i64, ptr getelementptr inbounds nuw (%struct._cwd_state, ptr @cwd_globals, i32 0, i32 1), align 8, !tbaa !16
  %131 = add i64 %130, 1
  %132 = icmp ule i64 %131, 448
  br i1 %132, label %133, label %135

133:                                              ; preds = %129
  %134 = call noalias ptr @_emalloc_448()
  br label %237

135:                                              ; preds = %129
  %136 = load i64, ptr getelementptr inbounds nuw (%struct._cwd_state, ptr @cwd_globals, i32 0, i32 1), align 8, !tbaa !16
  %137 = add i64 %136, 1
  %138 = icmp ule i64 %137, 512
  br i1 %138, label %139, label %141

139:                                              ; preds = %135
  %140 = call noalias ptr @_emalloc_512()
  br label %235

141:                                              ; preds = %135
  %142 = load i64, ptr getelementptr inbounds nuw (%struct._cwd_state, ptr @cwd_globals, i32 0, i32 1), align 8, !tbaa !16
  %143 = add i64 %142, 1
  %144 = icmp ule i64 %143, 640
  br i1 %144, label %145, label %147

145:                                              ; preds = %141
  %146 = call noalias ptr @_emalloc_640()
  br label %233

147:                                              ; preds = %141
  %148 = load i64, ptr getelementptr inbounds nuw (%struct._cwd_state, ptr @cwd_globals, i32 0, i32 1), align 8, !tbaa !16
  %149 = add i64 %148, 1
  %150 = icmp ule i64 %149, 768
  br i1 %150, label %151, label %153

151:                                              ; preds = %147
  %152 = call noalias ptr @_emalloc_768()
  br label %231

153:                                              ; preds = %147
  %154 = load i64, ptr getelementptr inbounds nuw (%struct._cwd_state, ptr @cwd_globals, i32 0, i32 1), align 8, !tbaa !16
  %155 = add i64 %154, 1
  %156 = icmp ule i64 %155, 896
  br i1 %156, label %157, label %159

157:                                              ; preds = %153
  %158 = call noalias ptr @_emalloc_896()
  br label %229

159:                                              ; preds = %153
  %160 = load i64, ptr getelementptr inbounds nuw (%struct._cwd_state, ptr @cwd_globals, i32 0, i32 1), align 8, !tbaa !16
  %161 = add i64 %160, 1
  %162 = icmp ule i64 %161, 1024
  br i1 %162, label %163, label %165

163:                                              ; preds = %159
  %164 = call noalias ptr @_emalloc_1024()
  br label %227

165:                                              ; preds = %159
  %166 = load i64, ptr getelementptr inbounds nuw (%struct._cwd_state, ptr @cwd_globals, i32 0, i32 1), align 8, !tbaa !16
  %167 = add i64 %166, 1
  %168 = icmp ule i64 %167, 1280
  br i1 %168, label %169, label %171

169:                                              ; preds = %165
  %170 = call noalias ptr @_emalloc_1280()
  br label %225

171:                                              ; preds = %165
  %172 = load i64, ptr getelementptr inbounds nuw (%struct._cwd_state, ptr @cwd_globals, i32 0, i32 1), align 8, !tbaa !16
  %173 = add i64 %172, 1
  %174 = icmp ule i64 %173, 1536
  br i1 %174, label %175, label %177

175:                                              ; preds = %171
  %176 = call noalias ptr @_emalloc_1536()
  br label %223

177:                                              ; preds = %171
  %178 = load i64, ptr getelementptr inbounds nuw (%struct._cwd_state, ptr @cwd_globals, i32 0, i32 1), align 8, !tbaa !16
  %179 = add i64 %178, 1
  %180 = icmp ule i64 %179, 1792
  br i1 %180, label %181, label %183

181:                                              ; preds = %177
  %182 = call noalias ptr @_emalloc_1792()
  br label %221

183:                                              ; preds = %177
  %184 = load i64, ptr getelementptr inbounds nuw (%struct._cwd_state, ptr @cwd_globals, i32 0, i32 1), align 8, !tbaa !16
  %185 = add i64 %184, 1
  %186 = icmp ule i64 %185, 2048
  br i1 %186, label %187, label %189

187:                                              ; preds = %183
  %188 = call noalias ptr @_emalloc_2048()
  br label %219

189:                                              ; preds = %183
  %190 = load i64, ptr getelementptr inbounds nuw (%struct._cwd_state, ptr @cwd_globals, i32 0, i32 1), align 8, !tbaa !16
  %191 = add i64 %190, 1
  %192 = icmp ule i64 %191, 2560
  br i1 %192, label %193, label %195

193:                                              ; preds = %189
  %194 = call noalias ptr @_emalloc_2560()
  br label %217

195:                                              ; preds = %189
  %196 = load i64, ptr getelementptr inbounds nuw (%struct._cwd_state, ptr @cwd_globals, i32 0, i32 1), align 8, !tbaa !16
  %197 = add i64 %196, 1
  %198 = icmp ule i64 %197, 3072
  br i1 %198, label %199, label %201

199:                                              ; preds = %195
  %200 = call noalias ptr @_emalloc_3072()
  br label %215

201:                                              ; preds = %195
  %202 = load i64, ptr getelementptr inbounds nuw (%struct._cwd_state, ptr @cwd_globals, i32 0, i32 1), align 8, !tbaa !16
  %203 = add i64 %202, 1
  %204 = icmp ule i64 %203, 2093056
  br i1 %204, label %205, label %209

205:                                              ; preds = %201
  %206 = load i64, ptr getelementptr inbounds nuw (%struct._cwd_state, ptr @cwd_globals, i32 0, i32 1), align 8, !tbaa !16
  %207 = add i64 %206, 1
  %208 = call noalias ptr @_emalloc_large(i64 noundef %207) #18
  br label %213

209:                                              ; preds = %201
  %210 = load i64, ptr getelementptr inbounds nuw (%struct._cwd_state, ptr @cwd_globals, i32 0, i32 1), align 8, !tbaa !16
  %211 = add i64 %210, 1
  %212 = call noalias ptr @_emalloc_huge(i64 noundef %211) #18
  br label %213

213:                                              ; preds = %209, %205
  %214 = phi ptr [ %208, %205 ], [ %212, %209 ]
  br label %215

215:                                              ; preds = %213, %199
  %216 = phi ptr [ %200, %199 ], [ %214, %213 ]
  br label %217

217:                                              ; preds = %215, %193
  %218 = phi ptr [ %194, %193 ], [ %216, %215 ]
  br label %219

219:                                              ; preds = %217, %187
  %220 = phi ptr [ %188, %187 ], [ %218, %217 ]
  br label %221

221:                                              ; preds = %219, %181
  %222 = phi ptr [ %182, %181 ], [ %220, %219 ]
  br label %223

223:                                              ; preds = %221, %175
  %224 = phi ptr [ %176, %175 ], [ %222, %221 ]
  br label %225

225:                                              ; preds = %223, %169
  %226 = phi ptr [ %170, %169 ], [ %224, %223 ]
  br label %227

227:                                              ; preds = %225, %163
  %228 = phi ptr [ %164, %163 ], [ %226, %225 ]
  br label %229

229:                                              ; preds = %227, %157
  %230 = phi ptr [ %158, %157 ], [ %228, %227 ]
  br label %231

231:                                              ; preds = %229, %151
  %232 = phi ptr [ %152, %151 ], [ %230, %229 ]
  br label %233

233:                                              ; preds = %231, %145
  %234 = phi ptr [ %146, %145 ], [ %232, %231 ]
  br label %235

235:                                              ; preds = %233, %139
  %236 = phi ptr [ %140, %139 ], [ %234, %233 ]
  br label %237

237:                                              ; preds = %235, %133
  %238 = phi ptr [ %134, %133 ], [ %236, %235 ]
  br label %239

239:                                              ; preds = %237, %127
  %240 = phi ptr [ %128, %127 ], [ %238, %237 ]
  br label %241

241:                                              ; preds = %239, %121
  %242 = phi ptr [ %122, %121 ], [ %240, %239 ]
  br label %243

243:                                              ; preds = %241, %115
  %244 = phi ptr [ %116, %115 ], [ %242, %241 ]
  br label %245

245:                                              ; preds = %243, %109
  %246 = phi ptr [ %110, %109 ], [ %244, %243 ]
  br label %247

247:                                              ; preds = %245, %103
  %248 = phi ptr [ %104, %103 ], [ %246, %245 ]
  br label %249

249:                                              ; preds = %247, %97
  %250 = phi ptr [ %98, %97 ], [ %248, %247 ]
  br label %251

251:                                              ; preds = %249, %91
  %252 = phi ptr [ %92, %91 ], [ %250, %249 ]
  br label %253

253:                                              ; preds = %251, %85
  %254 = phi ptr [ %86, %85 ], [ %252, %251 ]
  br label %255

255:                                              ; preds = %253, %79
  %256 = phi ptr [ %80, %79 ], [ %254, %253 ]
  br label %257

257:                                              ; preds = %255, %73
  %258 = phi ptr [ %74, %73 ], [ %256, %255 ]
  br label %259

259:                                              ; preds = %257, %67
  %260 = phi ptr [ %68, %67 ], [ %258, %257 ]
  br label %261

261:                                              ; preds = %259, %61
  %262 = phi ptr [ %62, %61 ], [ %260, %259 ]
  br label %263

263:                                              ; preds = %261, %55
  %264 = phi ptr [ %56, %55 ], [ %262, %261 ]
  br label %265

265:                                              ; preds = %263, %49
  %266 = phi ptr [ %50, %49 ], [ %264, %263 ]
  br label %267

267:                                              ; preds = %265, %43
  %268 = phi ptr [ %44, %43 ], [ %266, %265 ]
  br label %269

269:                                              ; preds = %267, %37
  %270 = phi ptr [ %38, %37 ], [ %268, %267 ]
  br label %271

271:                                              ; preds = %269, %31
  %272 = phi ptr [ %32, %31 ], [ %270, %269 ]
  br label %273

273:                                              ; preds = %271, %25
  %274 = phi ptr [ %26, %25 ], [ %272, %271 ]
  br label %279

275:                                              ; preds = %15
  %276 = load i64, ptr getelementptr inbounds nuw (%struct._cwd_state, ptr @cwd_globals, i32 0, i32 1), align 8, !tbaa !16
  %277 = add i64 %276, 1
  %278 = call noalias ptr @_emalloc(i64 noundef %277) #18
  br label %279

279:                                              ; preds = %275, %273
  %280 = phi ptr [ %274, %273 ], [ %278, %275 ]
  %281 = getelementptr inbounds nuw %struct._cwd_state, ptr %6, i32 0, i32 0
  store ptr %280, ptr %281, align 8, !tbaa !7
  %282 = getelementptr inbounds nuw %struct._cwd_state, ptr %6, i32 0, i32 0
  %283 = load ptr, ptr %282, align 8, !tbaa !7
  %284 = load ptr, ptr @cwd_globals, align 8, !tbaa !18
  %285 = load i64, ptr getelementptr inbounds nuw (%struct._cwd_state, ptr @cwd_globals, i32 0, i32 1), align 8, !tbaa !16
  %286 = add i64 %285, 1
  call void @llvm.memcpy.p0.p0.i64(ptr align 1 %283, ptr align 1 %284, i64 %286, i1 false)
  %287 = load ptr, ptr %4, align 8, !tbaa !12
  %288 = call i32 @virtual_file_ex(ptr noundef %6, ptr noundef %287, ptr noundef null, i32 noundef 0)
  %289 = icmp ne i32 %288, 0
  br i1 %289, label %290, label %294

290:                                              ; preds = %279
  %291 = getelementptr inbounds nuw %struct._cwd_state, ptr %6, i32 0, i32 0
  %292 = load ptr, ptr %291, align 8, !tbaa !7
  call void @_efree(ptr noundef %292)
  %293 = getelementptr inbounds nuw %struct._cwd_state, ptr %6, i32 0, i32 1
  store i64 0, ptr %293, align 8, !tbaa !13
  store ptr null, ptr %3, align 8
  store i32 1, ptr %8, align 4
  br label %303

294:                                              ; preds = %279
  %295 = getelementptr inbounds nuw %struct._cwd_state, ptr %6, i32 0, i32 0
  %296 = load ptr, ptr %295, align 8, !tbaa !7
  %297 = load ptr, ptr %5, align 8, !tbaa !12
  %298 = call noalias ptr @fopen(ptr noundef %296, ptr noundef %297)
  store ptr %298, ptr %7, align 8, !tbaa !55
  %299 = getelementptr inbounds nuw %struct._cwd_state, ptr %6, i32 0, i32 0
  %300 = load ptr, ptr %299, align 8, !tbaa !7
  call void @_efree(ptr noundef %300)
  %301 = getelementptr inbounds nuw %struct._cwd_state, ptr %6, i32 0, i32 1
  store i64 0, ptr %301, align 8, !tbaa !13
  %302 = load ptr, ptr %7, align 8, !tbaa !55
  store ptr %302, ptr %3, align 8
  store i32 1, ptr %8, align 4
  br label %303

303:                                              ; preds = %294, %290, %14
  call void @llvm.lifetime.end.p0(i64 8, ptr %7) #16
  call void @llvm.lifetime.end.p0(i64 16, ptr %6) #16
  %304 = load ptr, ptr %3, align 8
  ret ptr %304
}