; Function Attrs: nounwind uwtable
define dso_local noalias noundef ptr @virtual_fopen(ptr noundef readonly captures(none) %0, ptr noundef readonly captures(none) %1) local_unnamed_addr #0 {
  %3 = alloca %struct._cwd_state, align 8
  call void @llvm.lifetime.start.p0(i64 16, ptr nonnull %3) #22
  %4 = load i8, ptr %0, align 1, !tbaa !11
  %5 = icmp eq i8 %4, 0
  br i1 %5, label %19, label %6

6:                                                ; preds = %2
  %7 = load i64, ptr getelementptr inbounds nuw (i8, ptr @cwd_globals, i64 8), align 8, !tbaa !13
  %8 = getelementptr inbounds nuw i8, ptr %3, i64 8
  store i64 %7, ptr %8, align 8, !tbaa !12
  %9 = add i64 %7, 1
  %10 = tail call noalias ptr @_emalloc(i64 noundef %9) #24
  store ptr %10, ptr %3, align 8, !tbaa !4
  %11 = load ptr, ptr @cwd_globals, align 8, !tbaa !15
  %12 = load i64, ptr getelementptr inbounds nuw (i8, ptr @cwd_globals, i64 8), align 8, !tbaa !13
  %13 = add i64 %12, 1
  tail call void @llvm.memcpy.p0.p0.i64(ptr align 1 %10, ptr align 1 %11, i64 %13, i1 false)
  %14 = call i32 @virtual_file_ex(ptr noundef nonnull %3, ptr noundef nonnull %0, ptr noundef null, i32 noundef 0)
  %.not = icmp eq i32 %14, 0
  %15 = load ptr, ptr %3, align 8, !tbaa !4
  br i1 %.not, label %16, label %.sink.split

16:                                               ; preds = %6
  %17 = call noalias ptr @fopen(ptr noundef %15, ptr noundef %1)
  %18 = load ptr, ptr %3, align 8, !tbaa !4
  br label %.sink.split

.sink.split:                                      ; preds = %6, %16
  %.sink = phi ptr [ %18, %16 ], [ %15, %6 ]
  %.0.ph = phi ptr [ %17, %16 ], [ null, %6 ]
  call void @_efree(ptr noundef %.sink) #22
  br label %19

19:                                               ; preds = %.sink.split, %2
  %.0 = phi ptr [ null, %2 ], [ %.0.ph, %.sink.split ]
  call void @llvm.lifetime.end.p0(i64 16, ptr nonnull %3) #22
  ret ptr %.0
}